target datalayout = "e-m:e-p270:32:32-p271:32:32-p272:64:64-i64:64-i128:128-f80:128-n8:16:32:64-S128"
target triple = "x86_64-pc-linux-gnu"

%struct.Node = type { i32 }
%struct.Plan = type { i32, i32, double, double, double, i32, i8, i8, i8, i32, ptr, ptr, ptr, ptr, ptr, ptr, ptr }
%struct.Path = type { i32, i32, ptr, ptr, ptr, i8, i8, i32, double, i32, double, double, ptr }
%struct.Scan = type { %struct.Plan, i32 }
%struct.RelOptInfo = type { i32, i32, ptr, double, i8, i8, i8, ptr, ptr, ptr, ptr, ptr, ptr, ptr, ptr, ptr, ptr, i32, i32, i32, i16, i16, ptr, ptr, ptr, ptr, ptr, ptr, ptr, ptr, i32, double, double, ptr, ptr, ptr, i32, i32, i32, i32, i8, ptr, ptr, ptr, ptr, ptr, %struct.QualCost, i32, ptr, i8, i8, ptr, ptr, ptr, ptr, i32, ptr, i8, ptr, ptr, ptr, ptr, ptr, ptr }
%struct.QualCost = type { double, double }
%struct.ProjectionPath = type { %struct.Path, ptr, i8 }
%struct.SubqueryScanPath = type { %struct.Path, ptr }
%struct.SubqueryScan = type { %struct.Scan, ptr, i32 }
%struct.FdwRoutine = type { i32, ptr, ptr, ptr, ptr, ptr, ptr, ptr, ptr, ptr, ptr, ptr, ptr, ptr, ptr, ptr, ptr, ptr, ptr, ptr, ptr, ptr, ptr, ptr, ptr, ptr, ptr, ptr, ptr, ptr, ptr, ptr, ptr, ptr, ptr, ptr, ptr, ptr, ptr, ptr, ptr, ptr, ptr, ptr, ptr, ptr }

; Function Attrs: nounwind uwtable
define internal zeroext i1 @mark_async_capable_plan(ptr noundef %0, ptr noundef %1) #0 {
  %3 = alloca i1, align 1
  %4 = alloca ptr, align 8
  %5 = alloca ptr, align 8
  %6 = alloca ptr, align 8
  %7 = alloca i32, align 4
  %8 = alloca ptr, align 8
  store ptr %0, ptr %4, align 8
  store ptr %1, ptr %5, align 8
  %9 = load ptr, ptr %5, align 8
  %10 = getelementptr inbounds nuw %struct.Node, ptr %9, i32 0, i32 0
  %11 = load i32, ptr %10, align 4
  switch i32 %11, label %74 [
    i32 286, label %12
    i32 287, label %34
    i32 300, label %60
  ]

12:                                               ; preds = %2
  call void @llvm.lifetime.start.p0(i64 8, ptr %6) #10
  %13 = load ptr, ptr %4, align 8
  store ptr %13, ptr %6, align 8
  %14 = load ptr, ptr %4, align 8
  %15 = getelementptr inbounds nuw %struct.Node, ptr %14, i32 0, i32 0
  %16 = load i32, ptr %15, align 4
  %17 = icmp eq i32 %16, 330
  br i1 %17, label %18, label %19

18:                                               ; preds = %12
  store i1 false, ptr %3, align 1
  store i32 1, ptr %7, align 4
  br label %32

19:                                               ; preds = %12
  %20 = load ptr, ptr %6, align 8
  %21 = call zeroext i1 @trivial_subqueryscan(ptr noundef %20)
  br i1 %21, label %22, label %31

22:                                               ; preds = %19
  %23 = load ptr, ptr %6, align 8
  %24 = getelementptr inbounds nuw %struct.SubqueryScan, ptr %23, i32 0, i32 1
  %25 = load ptr, ptr %24, align 8
  %26 = load ptr, ptr %5, align 8
  %27 = getelementptr inbounds nuw %struct.SubqueryScanPath, ptr %26, i32 0, i32 1
  %28 = load ptr, ptr %27, align 8
  %29 = call zeroext i1 @mark_async_capable_plan(ptr noundef %25, ptr noundef %28)
  br i1 %29, label %30, label %31

30:                                               ; preds = %22
  store i32 2, ptr %7, align 4
  br label %32

31:                                               ; preds = %22, %19
  store i1 false, ptr %3, align 1
  store i32 1, ptr %7, align 4
  br label %32

32:                                               ; preds = %31, %30, %18
  call void @llvm.lifetime.end.p0(i64 8, ptr %6) #10
  %33 = load i32, ptr %7, align 4
  switch i32 %33, label %80 [
    i32 1, label %78
    i32 2, label %75
  ]

34:                                               ; preds = %2
  call void @llvm.lifetime.start.p0(i64 8, ptr %8) #10
  %35 = load ptr, ptr %5, align 8
  %36 = getelementptr inbounds nuw %struct.Path, ptr %35, i32 0, i32 2
  %37 = load ptr, ptr %36, align 8
  %38 = getelementptr inbounds nuw %struct.RelOptInfo, ptr %37, i32 0, i32 41
  %39 = load ptr, ptr %38, align 8
  store ptr %39, ptr %8, align 8
  %40 = load ptr, ptr %4, align 8
  %41 = getelementptr inbounds nuw %struct.Node, ptr %40, i32 0, i32 0
  %42 = load i32, ptr %41, align 4
  %43 = icmp eq i32 %42, 330
  br i1 %43, label %44, label %45

44:                                               ; preds = %34
  store i1 false, ptr %3, align 1
  store i32 1, ptr %7, align 4
  br label %58

45:                                               ; preds = %34
  %46 = load ptr, ptr %8, align 8
  %47 = getelementptr inbounds nuw %struct.FdwRoutine, ptr %46, i32 0, i32 42
  %48 = load ptr, ptr %47, align 8
  %49 = icmp ne ptr %48, null
  br i1 %49, label %50, label %57

50:                                               ; preds = %45
  %51 = load ptr, ptr %8, align 8
  %52 = getelementptr inbounds nuw %struct.FdwRoutine, ptr %51, i32 0, i32 42
  %53 = load ptr, ptr %52, align 8
  %54 = load ptr, ptr %5, align 8
  %55 = call zeroext i1 %53(ptr noundef %54)
  br i1 %55, label %56, label %57

56:                                               ; preds = %50
  store i32 2, ptr %7, align 4
  br label %58

57:                                               ; preds = %50, %45
  store i1 false, ptr %3, align 1
  store i32 1, ptr %7, align 4
  br label %58

58:                                               ; preds = %57, %56, %44
  call void @llvm.lifetime.end.p0(i64 8, ptr %8) #10
  %59 = load i32, ptr %7, align 4
  switch i32 %59, label %80 [
    i32 1, label %78
    i32 2, label %75
  ]

60:                                               ; preds = %2
  %61 = load ptr, ptr %4, align 8
  %62 = getelementptr inbounds nuw %struct.Node, ptr %61, i32 0, i32 0
  %63 = load i32, ptr %62, align 4
  %64 = icmp eq i32 %63, 330
  br i1 %64, label %65, label %66

65:                                               ; preds = %60
  store i1 false, ptr %3, align 1
  br label %78

66:                                               ; preds = %60
  %67 = load ptr, ptr %4, align 8
  %68 = load ptr, ptr %5, align 8
  %69 = getelementptr inbounds nuw %struct.ProjectionPath, ptr %68, i32 0, i32 1
  %70 = load ptr, ptr %69, align 8
  %71 = call zeroext i1 @mark_async_capable_plan(ptr noundef %67, ptr noundef %70)
  br i1 %71, label %72, label %73

72:                                               ; preds = %66
  store i1 true, ptr %3, align 1
  br label %78

73:                                               ; preds = %66
  store i1 false, ptr %3, align 1
  br label %78

74:                                               ; preds = %2
  store i1 false, ptr %3, align 1
  br label %78

75:                                               ; preds = %58, %32
  %76 = load ptr, ptr %4, align 8
  %77 = getelementptr inbounds nuw %struct.Plan, ptr %76, i32 0, i32 8
  store i8 1, ptr %77, align 2
  store i1 true, ptr %3, align 1
  br label %78

78:                                               ; preds = %75, %74, %73, %72, %65, %58, %32
  %79 = load i1, ptr %3, align 1
  ret i1 %79

80:                                               ; preds = %58, %32
  unreachable
}