; Function Attrs: nounwind uwtable
define internal fastcc noundef zeroext i1 @mark_async_capable_plan(ptr noundef %0, ptr noundef %1) unnamed_addr #0 {
  br label %tailrecurse

tailrecurse:                                      ; preds = %30, %2
  %.tr29 = phi ptr [ %1, %2 ], [ %32, %30 ]
  %3 = load i32, ptr %.tr29, align 4
  switch i32 %3, label %.thread [
    i32 286, label %4
    i32 287, label %15
    i32 300, label %27
  ]

4:                                                ; preds = %tailrecurse
  %5 = load i32, ptr %0, align 4
  %6 = icmp eq i32 %5, 330
  br i1 %6, label %.thread, label %7

7:                                                ; preds = %4
  %8 = tail call zeroext i1 @trivial_subqueryscan(ptr noundef nonnull %0) #12
  br i1 %8, label %9, label %.thread

9:                                                ; preds = %7
  %10 = getelementptr inbounds nuw i8, ptr %0, i64 112
  %11 = load ptr, ptr %10, align 8
  %12 = getelementptr inbounds nuw i8, ptr %.tr29, i64 80
  %13 = load ptr, ptr %12, align 8
  %14 = tail call fastcc zeroext i1 @mark_async_capable_plan(ptr noundef %11, ptr noundef %13)
  br i1 %14, label %33, label %.thread

15:                                               ; preds = %tailrecurse
  %16 = load i32, ptr %0, align 4
  %17 = icmp eq i32 %16, 330
  br i1 %17, label %.thread, label %18

18:                                               ; preds = %15
  %19 = getelementptr inbounds nuw i8, ptr %.tr29, i64 8
  %20 = load ptr, ptr %19, align 8
  %21 = getelementptr inbounds nuw i8, ptr %20, i64 264
  %22 = load ptr, ptr %21, align 8
  %23 = getelementptr inbounds nuw i8, ptr %22, i64 336
  %24 = load ptr, ptr %23, align 8
  %.not = icmp eq ptr %24, null
  br i1 %.not, label %.thread, label %25

25:                                               ; preds = %18
  %26 = tail call zeroext i1 %24(ptr noundef nonnull %.tr29) #12
  br i1 %26, label %33, label %.thread

27:                                               ; preds = %tailrecurse
  %28 = load i32, ptr %0, align 4
  %29 = icmp eq i32 %28, 330
  br i1 %29, label %.thread, label %30

30:                                               ; preds = %27
  %31 = getelementptr inbounds nuw i8, ptr %.tr29, i64 80
  %32 = load ptr, ptr %31, align 8
  br label %tailrecurse

33:                                               ; preds = %25, %9
  %34 = getelementptr inbounds nuw i8, ptr %0, i64 38
  store i8 1, ptr %34, align 2
  br label %.thread

.thread:                                          ; preds = %tailrecurse, %27, %18, %25, %15, %7, %9, %4, %33
  %.1 = phi i1 [ true, %33 ], [ false, %4 ], [ false, %9 ], [ false, %7 ], [ false, %15 ], [ false, %25 ], [ false, %18 ], [ false, %27 ], [ false, %tailrecurse ]
  ret i1 %.1
}